target datalayout = "e-m:e-p270:32:32-p271:32:32-p272:64:64-i64:64-i128:128-f80:128-n8:16:32:64-S128"
target triple = "x86_64-pc-linux-gnu"

%"class.cvc5::internal::Options" = type { %"class.std::unique_ptr.189", %"class.std::unique_ptr.197", %"class.std::unique_ptr.205", %"class.std::unique_ptr.213", %"class.std::unique_ptr.221", %"class.std::unique_ptr.229", %"class.std::unique_ptr.237", %"class.std::unique_ptr.245", %"class.std::unique_ptr.253", %"class.std::unique_ptr.261", %"class.std::unique_ptr.269", %"class.std::unique_ptr.277", %"class.std::unique_ptr.285", %"class.std::unique_ptr.293", %"class.std::unique_ptr.301", %"class.std::unique_ptr.309", %"class.std::unique_ptr.317", %"class.std::unique_ptr.325", %"class.std::unique_ptr.333", %"class.std::unique_ptr.341", %"class.std::unique_ptr.349", %"class.std::unique_ptr.357", %"class.std::unique_ptr.365", %"class.std::unique_ptr.373", %"class.std::unique_ptr.381", ptr, ptr, ptr, ptr, ptr, ptr, ptr, ptr, ptr, ptr, ptr, ptr, ptr, ptr, ptr, ptr, ptr, ptr, ptr, ptr, ptr, ptr, ptr, ptr, ptr, %"class.std::unique_ptr.389" }
%"class.std::unique_ptr.189" = type { %"struct.std::__uniq_ptr_data.190" }
%"struct.std::__uniq_ptr_data.190" = type { %"class.std::__uniq_ptr_impl.191" }
%"class.std::__uniq_ptr_impl.191" = type { %"class.std::tuple.192" }
%"class.std::tuple.192" = type { %"struct.std::_Tuple_impl.193" }
%"struct.std::_Tuple_impl.193" = type { %"struct.std::_Head_base.196" }
%"struct.std::_Head_base.196" = type { ptr }
%"class.std::unique_ptr.197" = type { %"struct.std::__uniq_ptr_data.198" }
%"struct.std::__uniq_ptr_data.198" = type { %"class.std::__uniq_ptr_impl.199" }
%"class.std::__uniq_ptr_impl.199" = type { %"class.std::tuple.200" }
%"class.std::tuple.200" = type { %"struct.std::_Tuple_impl.201" }
%"struct.std::_Tuple_impl.201" = type { %"struct.std::_Head_base.204" }
%"struct.std::_Head_base.204" = type { ptr }
%"class.std::unique_ptr.205" = type { %"struct.std::__uniq_ptr_data.206" }
%"struct.std::__uniq_ptr_data.206" = type { %"class.std::__uniq_ptr_impl.207" }
%"class.std::__uniq_ptr_impl.207" = type { %"class.std::tuple.208" }
%"class.std::tuple.208" = type { %"struct.std::_Tuple_impl.209" }
%"struct.std::_Tuple_impl.209" = type { %"struct.std::_Head_base.212" }
%"struct.std::_Head_base.212" = type { ptr }
%"class.std::unique_ptr.213" = type { %"struct.std::__uniq_ptr_data.214" }
%"struct.std::__uniq_ptr_data.214" = type { %"class.std::__uniq_ptr_impl.215" }
%"class.std::__uniq_ptr_impl.215" = type { %"class.std::tuple.216" }
%"class.std::tuple.216" = type { %"struct.std::_Tuple_impl.217" }
%"struct.std::_Tuple_impl.217" = type { %"struct.std::_Head_base.220" }
%"struct.std::_Head_base.220" = type { ptr }
%"class.std::unique_ptr.221" = type { %"struct.std::__uniq_ptr_data.222" }
%"struct.std::__uniq_ptr_data.222" = type { %"class.std::__uniq_ptr_impl.223" }
%"class.std::__uniq_ptr_impl.223" = type { %"class.std::tuple.224" }
%"class.std::tuple.224" = type { %"struct.std::_Tuple_impl.225" }
%"struct.std::_Tuple_impl.225" = type { %"struct.std::_Head_base.228" }
%"struct.std::_Head_base.228" = type { ptr }
%"class.std::unique_ptr.229" = type { %"struct.std::__uniq_ptr_data.230" }
%"struct.std::__uniq_ptr_data.230" = type { %"class.std::__uniq_ptr_impl.231" }
%"class.std::__uniq_ptr_impl.231" = type { %"class.std::tuple.232" }
%"class.std::tuple.232" = type { %"struct.std::_Tuple_impl.233" }
%"struct.std::_Tuple_impl.233" = type { %"struct.std::_Head_base.236" }
%"struct.std::_Head_base.236" = type { ptr }
%"class.std::unique_ptr.237" = type { %"struct.std::__uniq_ptr_data.238" }
%"struct.std::__uniq_ptr_data.238" = type { %"class.std::__uniq_ptr_impl.239" }
%"class.std::__uniq_ptr_impl.239" = type { %"class.std::tuple.240" }
%"class.std::tuple.240" = type { %"struct.std::_Tuple_impl.241" }
%"struct.std::_Tuple_impl.241" = type { %"struct.std::_Head_base.244" }
%"struct.std::_Head_base.244" = type { ptr }
%"class.std::unique_ptr.245" = type { %"struct.std::__uniq_ptr_data.246" }
%"struct.std::__uniq_ptr_data.246" = type { %"class.std::__uniq_ptr_impl.247" }
%"class.std::__uniq_ptr_impl.247" = type { %"class.std::tuple.248" }
%"class.std::tuple.248" = type { %"struct.std::_Tuple_impl.249" }
%"struct.std::_Tuple_impl.249" = type { %"struct.std::_Head_base.252" }
%"struct.std::_Head_base.252" = type { ptr }
%"class.std::unique_ptr.253" = type { %"struct.std::__uniq_ptr_data.254" }
%"struct.std::__uniq_ptr_data.254" = type { %"class.std::__uniq_ptr_impl.255" }
%"class.std::__uniq_ptr_impl.255" = type { %"class.std::tuple.256" }
%"class.std::tuple.256" = type { %"struct.std::_Tuple_impl.257" }
%"struct.std::_Tuple_impl.257" = type { %"struct.std::_Head_base.260" }
%"struct.std::_Head_base.260" = type { ptr }
%"class.std::unique_ptr.261" = type { %"struct.std::__uniq_ptr_data.262" }
%"struct.std::__uniq_ptr_data.262" = type { %"class.std::__uniq_ptr_impl.263" }
%"class.std::__uniq_ptr_impl.263" = type { %"class.std::tuple.264" }
%"class.std::tuple.264" = type { %"struct.std::_Tuple_impl.265" }
%"struct.std::_Tuple_impl.265" = type { %"struct.std::_Head_base.268" }
%"struct.std::_Head_base.268" = type { ptr }
%"class.std::unique_ptr.269" = type { %"struct.std::__uniq_ptr_data.270" }
%"struct.std::__uniq_ptr_data.270" = type { %"class.std::__uniq_ptr_impl.271" }
%"class.std::__uniq_ptr_impl.271" = type { %"class.std::tuple.272" }
%"class.std::tuple.272" = type { %"struct.std::_Tuple_impl.273" }
%"struct.std::_Tuple_impl.273" = type { %"struct.std::_Head_base.276" }
%"struct.std::_Head_base.276" = type { ptr }
%"class.std::unique_ptr.277" = type { %"struct.std::__uniq_ptr_data.278" }
%"struct.std::__uniq_ptr_data.278" = type { %"class.std::__uniq_ptr_impl.279" }
%"class.std::__uniq_ptr_impl.279" = type { %"class.std::tuple.280" }
%"class.std::tuple.280" = type { %"struct.std::_Tuple_impl.281" }
%"struct.std::_Tuple_impl.281" = type { %"struct.std::_Head_base.284" }
%"struct.std::_Head_base.284" = type { ptr }
%"class.std::unique_ptr.285" = type { %"struct.std::__uniq_ptr_data.286" }
%"struct.std::__uniq_ptr_data.286" = type { %"class.std::__uniq_ptr_impl.287" }
%"class.std::__uniq_ptr_impl.287" = type { %"class.std::tuple.288" }
%"class.std::tuple.288" = type { %"struct.std::_Tuple_impl.289" }
%"struct.std::_Tuple_impl.289" = type { %"struct.std::_Head_base.292" }
%"struct.std::_Head_base.292" = type { ptr }
%"class.std::unique_ptr.293" = type { %"struct.std::__uniq_ptr_data.294" }
%"struct.std::__uniq_ptr_data.294" = type { %"class.std::__uniq_ptr_impl.295" }
%"class.std::__uniq_ptr_impl.295" = type { %"class.std::tuple.296" }
%"class.std::tuple.296" = type { %"struct.std::_Tuple_impl.297" }
%"struct.std::_Tuple_impl.297" = type { %"struct.std::_Head_base.300" }
%"struct.std::_Head_base.300" = type { ptr }
%"class.std::unique_ptr.301" = type { %"struct.std::__uniq_ptr_data.302" }
%"struct.std::__uniq_ptr_data.302" = type { %"class.std::__uniq_ptr_impl.303" }
%"class.std::__uniq_ptr_impl.303" = type { %"class.std::tuple.304" }
%"class.std::tuple.304" = type { %"struct.std::_Tuple_impl.305" }
%"struct.std::_Tuple_impl.305" = type { %"struct.std::_Head_base.308" }
%"struct.std::_Head_base.308" = type { ptr }
%"class.std::unique_ptr.309" = type { %"struct.std::__uniq_ptr_data.310" }
%"struct.std::__uniq_ptr_data.310" = type { %"class.std::__uniq_ptr_impl.311" }
%"class.std::__uniq_ptr_impl.311" = type { %"class.std::tuple.312" }
%"class.std::tuple.312" = type { %"struct.std::_Tuple_impl.313" }
%"struct.std::_Tuple_impl.313" = type { %"struct.std::_Head_base.316" }
%"struct.std::_Head_base.316" = type { ptr }
%"class.std::unique_ptr.317" = type { %"struct.std::__uniq_ptr_data.318" }
%"struct.std::__uniq_ptr_data.318" = type { %"class.std::__uniq_ptr_impl.319" }
%"class.std::__uniq_ptr_impl.319" = type { %"class.std::tuple.320" }
%"class.std::tuple.320" = type { %"struct.std::_Tuple_impl.321" }
%"struct.std::_Tuple_impl.321" = type { %"struct.std::_Head_base.324" }
%"struct.std::_Head_base.324" = type { ptr }
%"class.std::unique_ptr.325" = type { %"struct.std::__uniq_ptr_data.326" }
%"struct.std::__uniq_ptr_data.326" = type { %"class.std::__uniq_ptr_impl.327" }
%"class.std::__uniq_ptr_impl.327" = type { %"class.std::tuple.328" }
%"class.std::tuple.328" = type { %"struct.std::_Tuple_impl.329" }
%"struct.std::_Tuple_impl.329" = type { %"struct.std::_Head_base.332" }
%"struct.std::_Head_base.332" = type { ptr }
%"class.std::unique_ptr.333" = type { %"struct.std::__uniq_ptr_data.334" }
%"struct.std::__uniq_ptr_data.334" = type { %"class.std::__uniq_ptr_impl.335" }
%"class.std::__uniq_ptr_impl.335" = type { %"class.std::tuple.336" }
%"class.std::tuple.336" = type { %"struct.std::_Tuple_impl.337" }
%"struct.std::_Tuple_impl.337" = type { %"struct.std::_Head_base.340" }
%"struct.std::_Head_base.340" = type { ptr }
%"class.std::unique_ptr.341" = type { %"struct.std::__uniq_ptr_data.342" }
%"struct.std::__uniq_ptr_data.342" = type { %"class.std::__uniq_ptr_impl.343" }
%"class.std::__uniq_ptr_impl.343" = type { %"class.std::tuple.344" }
%"class.std::tuple.344" = type { %"struct.std::_Tuple_impl.345" }
%"struct.std::_Tuple_impl.345" = type { %"struct.std::_Head_base.348" }
%"struct.std::_Head_base.348" = type { ptr }
%"class.std::unique_ptr.349" = type { %"struct.std::__uniq_ptr_data.350" }
%"struct.std::__uniq_ptr_data.350" = type { %"class.std::__uniq_ptr_impl.351" }
%"class.std::__uniq_ptr_impl.351" = type { %"class.std::tuple.352" }
%"class.std::tuple.352" = type { %"struct.std::_Tuple_impl.353" }
%"struct.std::_Tuple_impl.353" = type { %"struct.std::_Head_base.356" }
%"struct.std::_Head_base.356" = type { ptr }
%"class.std::unique_ptr.357" = type { %"struct.std::__uniq_ptr_data.358" }
%"struct.std::__uniq_ptr_data.358" = type { %"class.std::__uniq_ptr_impl.359" }
%"class.std::__uniq_ptr_impl.359" = type { %"class.std::tuple.360" }
%"class.std::tuple.360" = type { %"struct.std::_Tuple_impl.361" }
%"struct.std::_Tuple_impl.361" = type { %"struct.std::_Head_base.364" }
%"struct.std::_Head_base.364" = type { ptr }
%"class.std::unique_ptr.365" = type { %"struct.std::__uniq_ptr_data.366" }
%"struct.std::__uniq_ptr_data.366" = type { %"class.std::__uniq_ptr_impl.367" }
%"class.std::__uniq_ptr_impl.367" = type { %"class.std::tuple.368" }
%"class.std::tuple.368" = type { %"struct.std::_Tuple_impl.369" }
%"struct.std::_Tuple_impl.369" = type { %"struct.std::_Head_base.372" }
%"struct.std::_Head_base.372" = type { ptr }
%"class.std::unique_ptr.373" = type { %"struct.std::__uniq_ptr_data.374" }
%"struct.std::__uniq_ptr_data.374" = type { %"class.std::__uniq_ptr_impl.375" }
%"class.std::__uniq_ptr_impl.375" = type { %"class.std::tuple.376" }
%"class.std::tuple.376" = type { %"struct.std::_Tuple_impl.377" }
%"struct.std::_Tuple_impl.377" = type { %"struct.std::_Head_base.380" }
%"struct.std::_Head_base.380" = type { ptr }
%"class.std::unique_ptr.381" = type { %"struct.std::__uniq_ptr_data.382" }
%"struct.std::__uniq_ptr_data.382" = type { %"class.std::__uniq_ptr_impl.383" }
%"class.std::__uniq_ptr_impl.383" = type { %"class.std::tuple.384" }
%"class.std::tuple.384" = type { %"struct.std::_Tuple_impl.385" }
%"struct.std::_Tuple_impl.385" = type { %"struct.std::_Head_base.388" }
%"struct.std::_Head_base.388" = type { ptr }
%"class.std::unique_ptr.389" = type { %"struct.std::__uniq_ptr_data.390" }
%"struct.std::__uniq_ptr_data.390" = type { %"class.std::__uniq_ptr_impl.391" }
%"class.std::__uniq_ptr_impl.391" = type { %"class.std::tuple.392" }
%"class.std::tuple.392" = type { %"struct.std::_Tuple_impl.393" }
%"struct.std::_Tuple_impl.393" = type { %"struct.std::_Head_base.396" }
%"struct.std::_Head_base.396" = type { ptr }
%"struct.cvc5::internal::options::HolderSMT" = type <{ i8, i8, i8, i8, i8, i8, [2 x i8], i64, i8, i8, i8, i8, i8, i8, i8, i8, i8, i8, i8, i8, i8, i8, i8, i8, i32, i8, [3 x i8], double, i8, [3 x i8], i32, i8, i8, i8, i8, i32, i8, i8, i8, i8, i32, i8, [3 x i8], i32, i8, i8, i8, i8, i8, i8, i8, i8, i32, i8, i8, i8, i8, i8, i8, i8, i8, i8, i8, i8, i8, i8, i8, i8, i8, i8, i8, i8, i8, i8, i8, i8, i8, i8, i8, i8, i8, i32, i8, i8, i8, i8, i8, i8, i8, i8, i32, i8, i8, i8, i8, i32, i8, [7 x i8], i64, i8, i8, i8, i8, i8, i8, i8, i8, i64, i8, i8, i8, i8, i32, i8, [7 x i8] }>

; Function Attrs: mustprogress uwtable
define hidden noundef zeroext i1 @_ZNK4cvc58internal3smt9SmtSolver27trackPreprocessedAssertionsEv(ptr noundef nonnull align 8 dereferenceable(1288) %0) #6 align 2 {
  %2 = alloca ptr, align 8
  store ptr %0, ptr %2, align 8, !tbaa !16
  %3 = load ptr, ptr %2, align 8
  %4 = call noundef nonnull align 8 dereferenceable(408) ptr @_ZNK4cvc58internal6EnvObj7optionsEv(ptr noundef nonnull align 8 dereferenceable(16) %3)
  %5 = getelementptr inbounds nuw %"class.cvc5::internal::Options", ptr %4, i32 0, i32 46
  %6 = load ptr, ptr %5, align 8, !tbaa !557
  %7 = getelementptr inbounds nuw %"struct.cvc5::internal::options::HolderSMT", ptr %6, i32 0, i32 24
  %8 = load i32, ptr %7, align 8, !tbaa !558
  %9 = icmp ne i32 %8, 0
  br i1 %9, label %17, label %10

10:                                               ; preds = %1
  %11 = call noundef nonnull align 8 dereferenceable(408) ptr @_ZNK4cvc58internal6EnvObj7optionsEv(ptr noundef nonnull align 8 dereferenceable(16) %3)
  %12 = getelementptr inbounds nuw %"class.cvc5::internal::Options", ptr %11, i32 0, i32 46
  %13 = load ptr, ptr %12, align 8, !tbaa !557
  %14 = getelementptr inbounds nuw %"struct.cvc5::internal::options::HolderSMT", ptr %13, i32 0, i32 74
  %15 = load i8, ptr %14, align 1, !tbaa !571, !range !12, !noundef !13
  %16 = trunc i8 %15 to i1
  br label %17

17:                                               ; preds = %10, %1
  %18 = phi i1 [ true, %1 ], [ %16, %10 ]
  ret i1 %18
}