; Function Attrs: mustprogress uwtable
define hidden noundef zeroext i1 @_ZNK4cvc58internal3smt9SmtSolver27trackPreprocessedAssertionsEv(ptr noundef nonnull align 8 dereferenceable(1288) %0) local_unnamed_addr #4 align 2 {
  %2 = tail call noundef nonnull align 8 dereferenceable(408) ptr @_ZNK4cvc58internal6EnvObj7optionsEv(ptr noundef nonnull align 8 dereferenceable(16) %0)
  %3 = getelementptr inbounds nuw i8, ptr %2, i64 368
  %4 = load ptr, ptr %3, align 8, !tbaa !527
  %5 = getelementptr inbounds nuw i8, ptr %4, i64 32
  %6 = load i32, ptr %5, align 8, !tbaa !528
  %.not = icmp eq i32 %6, 0
  br i1 %.not, label %7, label %14

7:                                                ; preds = %1
  %8 = tail call noundef nonnull align 8 dereferenceable(408) ptr @_ZNK4cvc58internal6EnvObj7optionsEv(ptr noundef nonnull align 8 dereferenceable(16) %0)
  %9 = getelementptr inbounds nuw i8, ptr %8, i64 368
  %10 = load ptr, ptr %9, align 8, !tbaa !527
  %11 = getelementptr inbounds nuw i8, ptr %10, i64 113
  %12 = load i8, ptr %11, align 1, !tbaa !541, !range !45, !noundef !46
  %13 = trunc nuw i8 %12 to i1
  br label %14

14:                                               ; preds = %7, %1
  %15 = phi i1 [ true, %1 ], [ %13, %7 ]
  ret i1 %15
}